target datalayout = "e-m:e-p270:32:32-p271:32:32-p272:64:64-i64:64-i128:128-f80:128-n8:16:32:64-S128"
target triple = "x86_64-pc-linux-gnu"

%struct._asn1_ctx_t = type { i32, i32, i8, ptr, ptr, ptr, ptr, ptr, %struct.anon.1, %struct.anon.4, %struct.anon.5, ptr }
%struct.anon.1 = type { i32, i8, i8, i8, ptr, ptr, i32, i32, ptr, ptr, ptr, %union.anon }
%union.anon = type { %struct.anon.2 }
%struct.anon.2 = type { ptr }
%struct.anon.4 = type { ptr, ptr, ptr }
%struct.anon.5 = type { i32, i8, ptr, i32, i32, ptr, ptr, ptr, %union.anon.6 }
%union.anon.6 = type { %struct.anon.7 }
%struct.anon.7 = type { ptr }

@hf_camel_cellGlobalIdOrServiceAreaIdFixedLength = internal global i32 0, align 4
@hf_camel_locationAreaId = internal global i32 0, align 4
@ett_camel_pdptypenumber = internal global i32 0, align 4

; Function Attrs: null_pointer_is_valid sspstrong uwtable
define internal i32 @dissect_camel_T_cellGlobalIdOrServiceAreaIdOrLAI(i1 noundef zeroext %0, ptr noundef %1, i32 noundef %2, ptr noundef %3, ptr noundef %4, i32 noundef %5) #0 {
  %7 = alloca i8, align 1
  %8 = alloca ptr, align 8
  %9 = alloca i32, align 4
  %10 = alloca ptr, align 8
  %11 = alloca ptr, align 8
  %12 = alloca i32, align 4
  %13 = alloca ptr, align 8
  %14 = alloca i32, align 4
  %15 = zext i1 %0 to i8
  store i8 %15, ptr %7, align 1
  store ptr %1, ptr %8, align 8
  store i32 %2, ptr %9, align 4
  store ptr %3, ptr %10, align 8
  store ptr %4, ptr %11, align 8
  store i32 %5, ptr %12, align 4
  call void @llvm.lifetime.start.p0(i64 8, ptr %13) #11
  call void @llvm.lifetime.start.p0(i64 4, ptr %14) #11
  %16 = load i32, ptr %9, align 4
  store i32 %16, ptr %14, align 4
  %17 = load i8, ptr %7, align 1, !range !6, !noundef !7
  %18 = trunc i8 %17 to i1
  %19 = load ptr, ptr %10, align 8
  %20 = load ptr, ptr %11, align 8
  %21 = load ptr, ptr %8, align 8
  %22 = load i32, ptr %9, align 4
  %23 = load i32, ptr %12, align 4
  %24 = call i32 @dissect_ber_octet_string(i1 noundef zeroext %18, ptr noundef %19, ptr noundef %20, ptr noundef %21, i32 noundef %22, i32 noundef %23, ptr noundef null)
  store i32 %24, ptr %9, align 4
  %25 = load ptr, ptr %10, align 8
  %26 = getelementptr inbounds nuw %struct._asn1_ctx_t, ptr %25, i32 0, i32 4
  %27 = load ptr, ptr %26, align 8
  %28 = load i32, ptr @ett_camel_pdptypenumber, align 4
  %29 = call ptr @proto_item_add_subtree(ptr noundef %27, i32 noundef %28)
  store ptr %29, ptr %13, align 8
  %30 = load ptr, ptr %8, align 8
  %31 = load i32, ptr %14, align 4
  %32 = call i32 @tvb_reported_length_remaining(ptr noundef %30, i32 noundef %31)
  %33 = icmp eq i32 %32, 7
  br i1 %33, label %34, label %41

34:                                               ; preds = %6
  %35 = load ptr, ptr %8, align 8
  %36 = load i32, ptr %14, align 4
  %37 = load ptr, ptr %10, align 8
  %38 = load ptr, ptr %13, align 8
  %39 = load i32, ptr @hf_camel_cellGlobalIdOrServiceAreaIdFixedLength, align 4
  %40 = call i32 @dissect_gsm_map_CellGlobalIdOrServiceAreaIdFixedLength(i1 noundef zeroext true, ptr noundef %35, i32 noundef %36, ptr noundef %37, ptr noundef %38, i32 noundef %39)
  br label %48

41:                                               ; preds = %6
  %42 = load ptr, ptr %8, align 8
  %43 = load i32, ptr %14, align 4
  %44 = load ptr, ptr %10, align 8
  %45 = load ptr, ptr %13, align 8
  %46 = load i32, ptr @hf_camel_locationAreaId, align 4
  %47 = call i32 @dissect_gsm_map_LAIFixedLength(i1 noundef zeroext true, ptr noundef %42, i32 noundef %43, ptr noundef %44, ptr noundef %45, i32 noundef %46)
  br label %48

48:                                               ; preds = %41, %34
  %49 = load i32, ptr %9, align 4
  call void @llvm.lifetime.end.p0(i64 4, ptr %14) #11
  call void @llvm.lifetime.end.p0(i64 8, ptr %13) #11
  ret i32 %49
}