; Function Attrs: null_pointer_is_valid sspstrong uwtable
define internal i32 @dissect_camel_T_cellGlobalIdOrServiceAreaIdOrLAI(i1 noundef zeroext %0, ptr noundef %1, i32 noundef %2, ptr noundef %3, ptr noundef %4, i32 noundef %5) #0 {
  %7 = tail call i32 @dissect_ber_octet_string(i1 noundef zeroext %0, ptr noundef %3, ptr noundef %4, ptr noundef %1, i32 noundef %2, i32 noundef %5, ptr noundef null)
  %8 = getelementptr inbounds nuw i8, ptr %3, i64 24
  %9 = load ptr, ptr %8, align 8
  %10 = load i32, ptr @ett_camel_pdptypenumber, align 4
  %11 = tail call ptr @proto_item_add_subtree(ptr noundef %9, i32 noundef %10)
  %12 = tail call i32 @tvb_reported_length_remaining(ptr noundef %1, i32 noundef %2)
  %13 = icmp eq i32 %12, 7
  br i1 %13, label %14, label %17

14:                                               ; preds = %6
  %15 = load i32, ptr @hf_camel_cellGlobalIdOrServiceAreaIdFixedLength, align 4
  %16 = tail call i32 @dissect_gsm_map_CellGlobalIdOrServiceAreaIdFixedLength(i1 noundef zeroext true, ptr noundef %1, i32 noundef %2, ptr noundef %3, ptr noundef %11, i32 noundef %15)
  br label %20

17:                                               ; preds = %6
  %18 = load i32, ptr @hf_camel_locationAreaId, align 4
  %19 = tail call i32 @dissect_gsm_map_LAIFixedLength(i1 noundef zeroext true, ptr noundef %1, i32 noundef %2, ptr noundef %3, ptr noundef %11, i32 noundef %18)
  br label %20

20:                                               ; preds = %17, %14
  ret i32 %7
}